; Function Attrs: mustprogress nounwind uwtable
define hidden noundef ptr @_ZN11SymbolTable19lookup_only_unicodeEPKtiRj(ptr noundef %0, i32 noundef %1, ptr nocapture noundef nonnull writeonly align 4 dereferenceable(4) %2) local_unnamed_addr #0 align 2 {
  %4 = alloca [128 x i8], align 16
  %5 = tail call noundef i32 @_ZN7UNICODE11utf8_lengthItEEiPKT_i(ptr noundef %0, i32 noundef %1) #18
  %6 = icmp slt i32 %5, 128
  br i1 %6, label %7, label %9

7:                                                ; preds = %3
  call void @_ZN7UNICODE15convert_to_utf8EPKtiPc(ptr noundef %0, i32 noundef %1, ptr noundef nonnull %4) #18
  %8 = call noundef ptr @_ZN11SymbolTable11lookup_onlyEPKciRj(ptr noundef nonnull %4, i32 noundef %5, ptr noundef nonnull align 4 dereferenceable(4) %2)
  br label %_ZN12ResourceMarkD2Ev.exit

9:                                                ; preds = %3
  %10 = tail call align 8 ptr @llvm.threadlocal.address.p0(ptr align 8 @_ZN6Thread12_thr_currentE)
  %11 = load ptr, ptr %10, align 8
  %12 = getelementptr inbounds i8, ptr %11, i64 800
  %13 = load ptr, ptr %12, align 8
  %14 = getelementptr inbounds i8, ptr %13, i64 24
  %15 = load ptr, ptr %14, align 8
  %16 = getelementptr inbounds i8, ptr %13, i64 32
  %17 = load ptr, ptr %16, align 8
  %18 = getelementptr inbounds i8, ptr %13, i64 40
  %19 = load ptr, ptr %18, align 8
  %20 = getelementptr inbounds i8, ptr %13, i64 8
  %21 = load i64, ptr %20, align 8
  %22 = add nuw nsw i32 %5, 1
  %23 = zext nneg i32 %22 to i64
  %24 = tail call noundef ptr @_Z23resource_allocate_bytesmN17AllocFailStrategy13AllocFailEnumE(i64 noundef %23, i32 noundef 0) #18
  tail call void @_ZN7UNICODE15convert_to_utf8EPKtiPc(ptr noundef %0, i32 noundef %1, ptr noundef %24) #18
  %25 = tail call noundef ptr @_ZN11SymbolTable11lookup_onlyEPKciRj(ptr noundef %24, i32 noundef %5, ptr noundef nonnull align 4 dereferenceable(4) %2)
  %26 = load ptr, ptr %15, align 8
  %.not.i.i.i.i = icmp eq ptr %26, null
  br i1 %.not.i.i.i.i, label %28, label %27

27:                                               ; preds = %9
  tail call void @_ZN5Arena17set_size_in_bytesEm(ptr noundef nonnull align 8 dereferenceable(48) %13, i64 noundef %21) #18
  tail call void @_ZN5Chunk9next_chopEPS_(ptr noundef nonnull %15) #18
  br label %28

28:                                               ; preds = %27, %9
  %29 = load ptr, ptr %16, align 8
  %.not8.i.i.i.i = icmp eq ptr %29, %17
  br i1 %.not8.i.i.i.i, label %_ZN12ResourceMarkD2Ev.exit, label %30

30:                                               ; preds = %28
  store ptr %15, ptr %14, align 8
  store ptr %17, ptr %16, align 8
  store ptr %19, ptr %18, align 8
  br label %_ZN12ResourceMarkD2Ev.exit

_ZN12ResourceMarkD2Ev.exit:                       ; preds = %30, %28, %7
  %.0 = phi ptr [ %8, %7 ], [ %25, %28 ], [ %25, %30 ]
  ret ptr %.0
}